 0x000000000000000e (SONAME)             Library soname: [libgfxinfo_lib.so]
__bss_start B
_edata D
_end B
_Z10parse_argsiPPcP7options T 0000000000000292
_Z12print_limitsPKcS0_iPK13ext_functions T 00000000000003da
_Z17bitmask_to_stringPK8bit_infoii T 0000000000000106
_Z19extension_supportedPKcS0_ T 000000000000007f
_Z19profile_mask_stringi T 0000000000000023
_Z20context_flags_stringi T 0000000000000023
_Z20print_extension_listPKch T 000000000000037b
_Z21print_gpu_memory_infoPKc T 0000000000000049
_Z33build_core_profile_extension_listPK13ext_functions T 0000000000000155
_ZN10OpenGlInfoC1Ev W 0000000000000068
_ZN10OpenGlInfoC2Ev W 0000000000000068
_ZN10OpenGlInfoD1Ev W 0000000000000061
_ZN10OpenGlInfoD2Ev W 0000000000000061
_ZN7GfxInfo12populateInfoEv T 0000000000000114
_ZN7GfxInfo14populateGlInfoEv T 00000000000001ed
_ZN7GfxInfo14populateVkInfoEv T 0000000000000b51
_ZN7GfxInfo18populateKernelInfoEv T 0000000000000091
_ZN7GfxInfoC1Ev T 000000000000005c
_ZN7GfxInfoC2Ev T 000000000000005c
_ZN7GfxInfoD1Ev T 0000000000000051
_ZN7GfxInfoD2Ev T 0000000000000051
_ZN9__gnu_cxx13new_allocatorI21VkExtensionPropertiesE10deallocateEPS1_m W 0000000000000023
_ZN9__gnu_cxx13new_allocatorI21VkExtensionPropertiesE8allocateEmPKv W 000000000000004c
_ZN9__gnu_cxx13new_allocatorI21VkExtensionPropertiesEC1Ev W 000000000000000b
_ZN9__gnu_cxx13new_allocatorI21VkExtensionPropertiesEC2Ev W 000000000000000b
_ZN9__gnu_cxx13new_allocatorI21VkExtensionPropertiesED1Ev W 000000000000000b
_ZN9__gnu_cxx13new_allocatorI21VkExtensionPropertiesED2Ev W 000000000000000b
_ZN9__gnu_cxx13new_allocatorI22VkDeviceInfoPropertiesE10deallocateEPS1_m W 0000000000000023
_ZN9__gnu_cxx13new_allocatorI22VkDeviceInfoPropertiesE7destroyIS1_EEvPT_ W 000000000000000f
_ZN9__gnu_cxx13new_allocatorI22VkDeviceInfoPropertiesE8allocateEmPKv W 0000000000000045
_ZN9__gnu_cxx13new_allocatorI22VkDeviceInfoPropertiesE9constructIS1_JRKS1_EEEvPT_DpOT0_ W 0000000000000051
_ZN9__gnu_cxx13new_allocatorI22VkDeviceInfoPropertiesEC1Ev W 000000000000000b
_ZN9__gnu_cxx13new_allocatorI22VkDeviceInfoPropertiesEC2Ev W 000000000000000b
_ZN9__gnu_cxx13new_allocatorI22VkDeviceInfoPropertiesED1Ev W 000000000000000b
_ZN9__gnu_cxx13new_allocatorI22VkDeviceInfoPropertiesED2Ev W 000000000000000b
_ZN9__gnu_cxx13new_allocatorINSt7__cxx1112basic_stringIcSt11char_traitsIcESaIcEEEE10deallocateEPS6_m W 0000000000000023
_ZN9__gnu_cxx13new_allocatorINSt7__cxx1112basic_stringIcSt11char_traitsIcESaIcEEEE7destroyIS6_EEvPT_ W 000000000000001f
_ZN9__gnu_cxx13new_allocatorINSt7__cxx1112basic_stringIcSt11char_traitsIcESaIcEEEE8allocateEmPKv W 0000000000000042
_ZN9__gnu_cxx13new_allocatorINSt7__cxx1112basic_stringIcSt11char_traitsIcESaIcEEEE9constructIS6_JS6_EEEvPT_DpOT0_ W 0000000000000048
_ZN9__gnu_cxx13new_allocatorINSt7__cxx1112basic_stringIcSt11char_traitsIcESaIcEEEEC1Ev W 000000000000000b
_ZN9__gnu_cxx13new_allocatorINSt7__cxx1112basic_stringIcSt11char_traitsIcESaIcEEEEC2Ev W 000000000000000b
_ZN9__gnu_cxx13new_allocatorINSt7__cxx1112basic_stringIcSt11char_traitsIcESaIcEEEED1Ev W 000000000000000b
_ZN9__gnu_cxx13new_allocatorINSt7__cxx1112basic_stringIcSt11char_traitsIcESaIcEEEED2Ev W 000000000000000b
_ZN9__gnu_cxx13new_allocatorIP18VkPhysicalDevice_TE10deallocateEPS2_m W 0000000000000023
_ZN9__gnu_cxx13new_allocatorIP18VkPhysicalDevice_TE8allocateEmPKv W 0000000000000042
_ZN9__gnu_cxx13new_allocatorIP18VkPhysicalDevice_TEC1ERKS3_ W 000000000000000f
_ZN9__gnu_cxx13new_allocatorIP18VkPhysicalDevice_TEC1Ev W 000000000000000b
_ZN9__gnu_cxx13new_allocatorIP18VkPhysicalDevice_TEC2ERKS3_ W 000000000000000f
_ZN9__gnu_cxx13new_allocatorIP18VkPhysicalDevice_TEC2Ev W 000000000000000b
_ZN9__gnu_cxx13new_allocatorIP18VkPhysicalDevice_TED1Ev W 000000000000000b
_ZN9__gnu_cxx13new_allocatorIP18VkPhysicalDevice_TED2Ev W 000000000000000b
_ZN9__gnu_cxx13new_allocatorIPKcE10deallocateEPS2_m W 0000000000000023
_ZN9__gnu_cxx13new_allocatorIPKcE7destroyIS2_EEvPT_ W 000000000000000f
_ZN9__gnu_cxx13new_allocatorIPKcE8allocateEmPKv W 0000000000000042
_ZN9__gnu_cxx13new_allocatorIPKcE9constructIS2_JS2_EEEvPT_DpOT0_ W 0000000000000040
_ZN9__gnu_cxx13new_allocatorIPKcEC1ERKS3_ W 000000000000000f
_ZN9__gnu_cxx13new_allocatorIPKcEC1Ev W 000000000000000b
_ZN9__gnu_cxx13new_allocatorIPKcEC2ERKS3_ W 000000000000000f
_ZN9__gnu_cxx13new_allocatorIPKcEC2Ev W 000000000000000b
_ZN9__gnu_cxx13new_allocatorIPKcED1Ev W 000000000000000b
_ZN9__gnu_cxx13new_allocatorIPKcED2Ev W 000000000000000b
_ZN9__gnu_cxx17__normal_iteratorIP21VkExtensionPropertiesSt6vectorIS1_SaIS1_EEEC1ERKS2_ W 000000000000001d
_ZN9__gnu_cxx17__normal_iteratorIP21VkExtensionPropertiesSt6vectorIS1_SaIS1_EEEC2ERKS2_ W 000000000000001d
_ZN9__gnu_cxx17__normal_iteratorIP21VkExtensionPropertiesSt6vectorIS1_SaIS1_EEEppEv W 0000000000000023
_ZN9__gnu_cxx17__normal_iteratorIP22VkDeviceInfoPropertiesSt6vectorIS1_SaIS1_EEEC1ERKS2_ W 000000000000001d
_ZN9__gnu_cxx17__normal_iteratorIP22VkDeviceInfoPropertiesSt6vectorIS1_SaIS1_EEEC2ERKS2_ W 000000000000001d
_ZN9__gnu_cxx17__normal_iteratorIPNSt7__cxx1112basic_stringIcSt11char_traitsIcESaIcEEESt6vectorIS6_SaIS6_EEEC1ERKS7_ W 000000000000001d
_ZN9__gnu_cxx17__normal_iteratorIPNSt7__cxx1112basic_stringIcSt11char_traitsIcESaIcEEESt6vectorIS6_SaIS6_EEEC2ERKS7_ W 000000000000001d
_ZN9__gnu_cxx17__normal_iteratorIPNSt7__cxx1112basic_stringIcSt11char_traitsIcESaIcEEESt6vectorIS6_SaIS6_EEEppEv W 0000000000000020
_ZN9__gnu_cxx17__normal_iteratorIPP18VkPhysicalDevice_TSt6vectorIS2_SaIS2_EEEC1ERKS3_ W 000000000000001d
_ZN9__gnu_cxx17__normal_iteratorIPP18VkPhysicalDevice_TSt6vectorIS2_SaIS2_EEEC2ERKS3_ W 000000000000001d
_ZN9__gnu_cxx17__normal_iteratorIPP18VkPhysicalDevice_TSt6vectorIS2_SaIS2_EEEppEv W 0000000000000020
_ZN9__gnu_cxx17__normal_iteratorIPPKcSt6vectorIS2_SaIS2_EEEC1ERKS3_ W 000000000000001d
_ZN9__gnu_cxx17__normal_iteratorIPPKcSt6vectorIS2_SaIS2_EEEC2ERKS3_ W 000000000000001d
_ZN9__gnu_cxx5__ops16_Iter_equals_valIA39_KcEC1ERS3_ W 000000000000001a
_ZN9__gnu_cxx5__ops16_Iter_equals_valIA39_KcEC2ERS3_ W 000000000000001a
_ZN9__gnu_cxx5__ops16_Iter_equals_valIA39_KcEclINS_17__normal_iteratorIPNSt7__cxx1112basic_stringIcSt11char_traitsIcESaIcEEESt6vectorISC_SaISC_EEEEEEbT_ W 0000000000000036
_ZN9__gnu_cxx5__ops17__iter_equals_valIA39_KcEENS0_16_Iter_equals_valIT_EERS5_ W 0000000000000048
_ZN9__gnu_cxxeqIP21VkExtensionPropertiesSt6vectorIS1_SaIS1_EEEEbRKNS_17__normal_iteratorIT_T0_EESB_ W 000000000000003c
_ZN9__gnu_cxxeqIPNSt7__cxx1112basic_stringIcSt11char_traitsIcESaIcEEESt6vectorIS6_SaIS6_EEEEbRKNS_17__normal_iteratorIT_T0_EESG_ W 000000000000003c
_ZN9__gnu_cxxmiIP21VkExtensionPropertiesSt6vectorIS1_SaIS1_EEEENS_17__normal_iteratorIT_T0_E15difference_typeERKS9_SC_ W 0000000000000051
_ZN9__gnu_cxxmiIP22VkDeviceInfoPropertiesSt6vectorIS1_SaIS1_EEEENS_17__normal_iteratorIT_T0_E15difference_typeERKS9_SC_ W 0000000000000051
_ZN9__gnu_cxxmiIPNSt7__cxx1112basic_stringIcSt11char_traitsIcESaIcEEESt6vectorIS6_SaIS6_EEEENS_17__normal_iteratorIT_T0_E15difference_typeERKSE_SH_ W 0000000000000040
_ZN9__gnu_cxxmiIPPKcSt6vectorIS2_SaIS2_EEEENS_17__normal_iteratorIT_T0_E15difference_typeERKSA_SD_ W 0000000000000040
_ZN9__gnu_cxxneIP21VkExtensionPropertiesSt6vectorIS1_SaIS1_EEEEbRKNS_17__normal_iteratorIT_T0_EESB_ W 000000000000003c
_ZN9__gnu_cxxneIPNSt7__cxx1112basic_stringIcSt11char_traitsIcESaIcEEESt6vectorIS6_SaIS6_EEEEbRKNS_17__normal_iteratorIT_T0_EESG_ W 000000000000003c
_ZN9__gnu_cxxneIPP18VkPhysicalDevice_TSt6vectorIS2_SaIS2_EEEEbRKNS_17__normal_iteratorIT_T0_EESC_ W 000000000000003c
_ZNK9__gnu_cxx13new_allocatorI21VkExtensionPropertiesE8max_sizeEv W 0000000000000014
_ZNK9__gnu_cxx13new_allocatorI22VkDeviceInfoPropertiesE8max_sizeEv W 0000000000000014
_ZNK9__gnu_cxx13new_allocatorINSt7__cxx1112basic_stringIcSt11char_traitsIcESaIcEEEE8max_sizeEv W 0000000000000014
_ZNK9__gnu_cxx13new_allocatorIP18VkPhysicalDevice_TE8max_sizeEv W 0000000000000014
_ZNK9__gnu_cxx13new_allocatorIPKcE8max_sizeEv W 0000000000000014
_ZNK9__gnu_cxx17__normal_iteratorIP21VkExtensionPropertiesSt6vectorIS1_SaIS1_EEE4baseEv W 000000000000000e
_ZNK9__gnu_cxx17__normal_iteratorIP21VkExtensionPropertiesSt6vectorIS1_SaIS1_EEEdeEv W 0000000000000011
_ZNK9__gnu_cxx17__normal_iteratorIP22VkDeviceInfoPropertiesSt6vectorIS1_SaIS1_EEE4baseEv W 000000000000000e
_ZNK9__gnu_cxx17__normal_iteratorIPNSt7__cxx1112basic_stringIcSt11char_traitsIcESaIcEEESt6vectorIS6_SaIS6_EEE4baseEv W 000000000000000e
_ZNK9__gnu_cxx17__normal_iteratorIPNSt7__cxx1112basic_stringIcSt11char_traitsIcESaIcEEESt6vectorIS6_SaIS6_EEEdeEv W 0000000000000011
_ZNK9__gnu_cxx17__normal_iteratorIPP18VkPhysicalDevice_TSt6vectorIS2_SaIS2_EEE4baseEv W 000000000000000e
_ZNK9__gnu_cxx17__normal_iteratorIPP18VkPhysicalDevice_TSt6vectorIS2_SaIS2_EEEdeEv W 0000000000000011
_ZNK9__gnu_cxx17__normal_iteratorIPPKcSt6vectorIS2_SaIS2_EEE4baseEv W 000000000000000e
_ZNKSt12_Vector_baseI21VkExtensionPropertiesSaIS0_EE19_M_get_Tp_allocatorEv W 000000000000000e
_ZNKSt12_Vector_baseI22VkDeviceInfoPropertiesSaIS0_EE19_M_get_Tp_allocatorEv W 000000000000000e
_ZNKSt12_Vector_baseINSt7__cxx1112basic_stringIcSt11char_traitsIcESaIcEEESaIS5_EE19_M_get_Tp_allocatorEv W 000000000000000e
_ZNKSt12_Vector_baseIPKcSaIS1_EE19_M_get_Tp_allocatorEv W 000000000000000e
_ZNKSt13move_iteratorIP21VkExtensionPropertiesE4baseEv W 0000000000000011
_ZNKSt13move_iteratorIP22VkDeviceInfoPropertiesE4baseEv W 0000000000000011
_ZNKSt13move_iteratorIPNSt7__cxx1112basic_stringIcSt11char_traitsIcESaIcEEEE4baseEv W 0000000000000011
_ZNKSt13move_iteratorIPNSt7__cxx1112basic_stringIcSt11char_traitsIcESaIcEEEEdeEv W 0000000000000011
_ZNKSt13move_iteratorIPPKcE4baseEv W 0000000000000011
_ZNKSt16initializer_listIPKcE3endEv W 0000000000000036
_ZNKSt16initializer_listIPKcE4sizeEv W 0000000000000012
_ZNKSt16initializer_listIPKcE5beginEv W 0000000000000011
_ZNKSt6vectorI21VkExtensionPropertiesSaIS0_EE11_M_data_ptrIS0_EEPT_S5_ W 0000000000000012
_ZNKSt6vectorI21VkExtensionPropertiesSaIS0_EE12_M_check_lenEmPKc W 00000000000000ec
_ZNKSt6vectorI21VkExtensionPropertiesSaIS0_EE4sizeEv W 0000000000000034
_ZNKSt6vectorI21VkExtensionPropertiesSaIS0_EE8max_sizeEv W 0000000000000022
_ZNKSt6vectorI22VkDeviceInfoPropertiesSaIS0_EE12_M_check_lenEmPKc W 00000000000000ec
_ZNKSt6vectorI22VkDeviceInfoPropertiesSaIS0_EE4sizeEv W 0000000000000034
_ZNKSt6vectorI22VkDeviceInfoPropertiesSaIS0_EE8capacityEv W 0000000000000034
_ZNKSt6vectorI22VkDeviceInfoPropertiesSaIS0_EE8max_sizeEv W 0000000000000022
_ZNKSt6vectorINSt7__cxx1112basic_stringIcSt11char_traitsIcESaIcEEESaIS5_EE12_M_check_lenEmPKc W 00000000000000ec
_ZNKSt6vectorINSt7__cxx1112basic_stringIcSt11char_traitsIcESaIcEEESaIS5_EE4sizeEv W 0000000000000023
_ZNKSt6vectorINSt7__cxx1112basic_stringIcSt11char_traitsIcESaIcEEESaIS5_EE8max_sizeEv W 0000000000000022
_ZNKSt6vectorIP18VkPhysicalDevice_TSaIS1_EE11_M_data_ptrIS1_EEPT_S6_ W 0000000000000012
_ZNKSt6vectorIPKcSaIS1_EE11_M_data_ptrIS1_EEPT_S6_ W 0000000000000012
_ZNKSt6vectorIPKcSaIS1_EE12_M_check_lenEmS1_ W 00000000000000ec
_ZNKSt6vectorIPKcSaIS1_EE4sizeEv W 0000000000000023
_ZNKSt6vectorIPKcSaIS1_EE8max_sizeEv W 0000000000000022
_ZNSaI21VkExtensionPropertiesEC1Ev W 000000000000001b
_ZNSaI21VkExtensionPropertiesEC2Ev W 000000000000001b
_ZNSaI21VkExtensionPropertiesED1Ev W 000000000000001b
_ZNSaI21VkExtensionPropertiesED2Ev W 000000000000001b
_ZNSaI22VkDeviceInfoPropertiesEC1Ev W 000000000000001b
_ZNSaI22VkDeviceInfoPropertiesEC2Ev W 000000000000001b
_ZNSaI22VkDeviceInfoPropertiesED1Ev W 000000000000001b
_ZNSaI22VkDeviceInfoPropertiesED2Ev W 000000000000001b
_ZNSaINSt7__cxx1112basic_stringIcSt11char_traitsIcESaIcEEEEC1Ev W 000000000000001b
_ZNSaINSt7__cxx1112basic_stringIcSt11char_traitsIcESaIcEEEEC2Ev W 000000000000001b
_ZNSaINSt7__cxx1112basic_stringIcSt11char_traitsIcESaIcEEEED1Ev W 000000000000001b
_ZNSaINSt7__cxx1112basic_stringIcSt11char_traitsIcESaIcEEEED2Ev W 000000000000001b
_ZNSaIP18VkPhysicalDevice_TEC1ERKS1_ W 0000000000000026
_ZNSaIP18VkPhysicalDevice_TEC1Ev W 000000000000001b
_ZNSaIP18VkPhysicalDevice_TEC2ERKS1_ W 0000000000000026
_ZNSaIP18VkPhysicalDevice_TEC2Ev W 000000000000001b
_ZNSaIP18VkPhysicalDevice_TED1Ev W 000000000000001b
_ZNSaIP18VkPhysicalDevice_TED2Ev W 000000000000001b
_ZNSaIPKcEC1ERKS1_ W 0000000000000026
_ZNSaIPKcEC1Ev W 000000000000001b
_ZNSaIPKcEC2ERKS1_ W 0000000000000026
_ZNSaIPKcEC2Ev W 000000000000001b
_ZNSaIPKcED1Ev W 000000000000001b
_ZNSaIPKcED2Ev W 000000000000001b
_ZNSt11char_traitsIcE7compareEPKcS2_m W 000000000000003c
_ZNSt11__copy_moveILb0ELb1ESt26random_access_iterator_tagE8__copy_mIPKcEEPT_PKS5_S8_S6_ W 000000000000005f
_ZNSt11__copy_moveILb1ELb1ESt26random_access_iterator_tagE8__copy_mI21VkExtensionPropertiesEEPT_PKS4_S7_S5_ W 0000000000000082
_ZNSt11__copy_moveILb1ELb1ESt26random_access_iterator_tagE8__copy_mI22VkDeviceInfoPropertiesEEPT_PKS4_S7_S5_ W 000000000000006e
_ZNSt11__copy_moveILb1ELb1ESt26random_access_iterator_tagE8__copy_mIPKcEEPT_PKS5_S8_S6_ W 000000000000005f
_ZNSt12_Destroy_auxILb0EE9__destroyIPNSt7__cxx1112basic_stringIcSt11char_traitsIcESaIcEEEEEvT_S9_ W 0000000000000038
_ZNSt12_Destroy_auxILb1EE9__destroyIP21VkExtensionPropertiesEEvT_S4_ W 000000000000000f
_ZNSt12_Destroy_auxILb1EE9__destroyIP22VkDeviceInfoPropertiesEEvT_S4_ W 000000000000000f
_ZNSt12_Destroy_auxILb1EE9__destroyIPP18VkPhysicalDevice_TEEvT_S5_ W 000000000000000f
_ZNSt12_Destroy_auxILb1EE9__destroyIPPKcEEvT_S5_ W 000000000000000f
_ZNSt12_Vector_baseI21VkExtensionPropertiesSaIS0_EE11_M_allocateEm W 0000000000000033
_ZNSt12_Vector_baseI21VkExtensionPropertiesSaIS0_EE12_Vector_implC1Ev W 0000000000000027
_ZNSt12_Vector_baseI21VkExtensionPropertiesSaIS0_EE12_Vector_implC2Ev W 0000000000000027
_ZNSt12_Vector_baseI21VkExtensionPropertiesSaIS0_EE12_Vector_implD1Ev W 000000000000001b
_ZNSt12_Vector_baseI21VkExtensionPropertiesSaIS0_EE12_Vector_implD2Ev W 000000000000001b
_ZNSt12_Vector_baseI21VkExtensionPropertiesSaIS0_EE13_M_deallocateEPS0_m W 0000000000000035
_ZNSt12_Vector_baseI21VkExtensionPropertiesSaIS0_EE17_Vector_impl_dataC1Ev W 000000000000002e
_ZNSt12_Vector_baseI21VkExtensionPropertiesSaIS0_EE17_Vector_impl_dataC2Ev W 000000000000002e
_ZNSt12_Vector_baseI21VkExtensionPropertiesSaIS0_EE19_M_get_Tp_allocatorEv W 000000000000000e
_ZNSt12_Vector_baseI21VkExtensionPropertiesSaIS0_EEC1Ev W 000000000000001b
_ZNSt12_Vector_baseI21VkExtensionPropertiesSaIS0_EEC2Ev W 000000000000001b
_ZNSt12_Vector_baseI21VkExtensionPropertiesSaIS0_EED1Ev W 000000000000005e
_ZNSt12_Vector_baseI21VkExtensionPropertiesSaIS0_EED2Ev W 000000000000005e
_ZNSt12_Vector_baseI22VkDeviceInfoPropertiesSaIS0_EE11_M_allocateEm W 0000000000000033
_ZNSt12_Vector_baseI22VkDeviceInfoPropertiesSaIS0_EE12_Vector_implC1Ev W 0000000000000027
_ZNSt12_Vector_baseI22VkDeviceInfoPropertiesSaIS0_EE12_Vector_implC2Ev W 0000000000000027
_ZNSt12_Vector_baseI22VkDeviceInfoPropertiesSaIS0_EE12_Vector_implD1Ev W 000000000000001b
_ZNSt12_Vector_baseI22VkDeviceInfoPropertiesSaIS0_EE12_Vector_implD2Ev W 000000000000001b
_ZNSt12_Vector_baseI22VkDeviceInfoPropertiesSaIS0_EE13_M_deallocateEPS0_m W 0000000000000035
_ZNSt12_Vector_baseI22VkDeviceInfoPropertiesSaIS0_EE17_Vector_impl_dataC1Ev W 000000000000002e
_ZNSt12_Vector_baseI22VkDeviceInfoPropertiesSaIS0_EE17_Vector_impl_dataC2Ev W 000000000000002e
_ZNSt12_Vector_baseI22VkDeviceInfoPropertiesSaIS0_EE19_M_get_Tp_allocatorEv W 000000000000000e
_ZNSt12_Vector_baseI22VkDeviceInfoPropertiesSaIS0_EEC1Ev W 000000000000001b
_ZNSt12_Vector_baseI22VkDeviceInfoPropertiesSaIS0_EEC2Ev W 000000000000001b
_ZNSt12_Vector_baseI22VkDeviceInfoPropertiesSaIS0_EED1Ev W 000000000000005e
_ZNSt12_Vector_baseI22VkDeviceInfoPropertiesSaIS0_EED2Ev W 000000000000005e
_ZNSt12_Vector_baseINSt7__cxx1112basic_stringIcSt11char_traitsIcESaIcEEESaIS5_EE11_M_allocateEm W 0000000000000033
_ZNSt12_Vector_baseINSt7__cxx1112basic_stringIcSt11char_traitsIcESaIcEEESaIS5_EE12_Vector_implC1Ev W 0000000000000027
_ZNSt12_Vector_baseINSt7__cxx1112basic_stringIcSt11char_traitsIcESaIcEEESaIS5_EE12_Vector_implC2Ev W 0000000000000027
_ZNSt12_Vector_baseINSt7__cxx1112basic_stringIcSt11char_traitsIcESaIcEEESaIS5_EE12_Vector_implD1Ev W 000000000000001b
_ZNSt12_Vector_baseINSt7__cxx1112basic_stringIcSt11char_traitsIcESaIcEEESaIS5_EE12_Vector_implD2Ev W 000000000000001b
_ZNSt12_Vector_baseINSt7__cxx1112basic_stringIcSt11char_traitsIcESaIcEEESaIS5_EE13_M_deallocateEPS5_m W 0000000000000035
_ZNSt12_Vector_baseINSt7__cxx1112basic_stringIcSt11char_traitsIcESaIcEEESaIS5_EE17_Vector_impl_dataC1Ev W 000000000000002e
_ZNSt12_Vector_baseINSt7__cxx1112basic_stringIcSt11char_traitsIcESaIcEEESaIS5_EE17_Vector_impl_dataC2Ev W 000000000000002e
_ZNSt12_Vector_baseINSt7__cxx1112basic_stringIcSt11char_traitsIcESaIcEEESaIS5_EE19_M_get_Tp_allocatorEv W 000000000000000e
_ZNSt12_Vector_baseINSt7__cxx1112basic_stringIcSt11char_traitsIcESaIcEEESaIS5_EEC1Ev W 000000000000001b
_ZNSt12_Vector_baseINSt7__cxx1112basic_stringIcSt11char_traitsIcESaIcEEESaIS5_EEC2Ev W 000000000000001b
_ZNSt12_Vector_baseINSt7__cxx1112basic_stringIcSt11char_traitsIcESaIcEEESaIS5_EED1Ev W 000000000000004d
_ZNSt12_Vector_baseINSt7__cxx1112basic_stringIcSt11char_traitsIcESaIcEEESaIS5_EED2Ev W 000000000000004d
_ZNSt12_Vector_baseIP18VkPhysicalDevice_TSaIS1_EE11_M_allocateEm W 0000000000000033
_ZNSt12_Vector_baseIP18VkPhysicalDevice_TSaIS1_EE12_Vector_implC1ERKS2_ W 0000000000000032
_ZNSt12_Vector_baseIP18VkPhysicalDevice_TSaIS1_EE12_Vector_implC2ERKS2_ W 0000000000000032
_ZNSt12_Vector_baseIP18VkPhysicalDevice_TSaIS1_EE12_Vector_implD1Ev W 000000000000001b
_ZNSt12_Vector_baseIP18VkPhysicalDevice_TSaIS1_EE12_Vector_implD2Ev W 000000000000001b
_ZNSt12_Vector_baseIP18VkPhysicalDevice_TSaIS1_EE13_M_deallocateEPS1_m W 0000000000000035
_ZNSt12_Vector_baseIP18VkPhysicalDevice_TSaIS1_EE17_M_create_storageEm W 0000000000000056
_ZNSt12_Vector_baseIP18VkPhysicalDevice_TSaIS1_EE17_Vector_impl_dataC1Ev W 000000000000002e
_ZNSt12_Vector_baseIP18VkPhysicalDevice_TSaIS1_EE17_Vector_impl_dataC2Ev W 000000000000002e
_ZNSt12_Vector_baseIP18VkPhysicalDevice_TSaIS1_EE19_M_get_Tp_allocatorEv W 000000000000000e
_ZNSt12_Vector_baseIP18VkPhysicalDevice_TSaIS1_EEC1EmRKS2_ W 000000000000005e
_ZNSt12_Vector_baseIP18VkPhysicalDevice_TSaIS1_EEC2EmRKS2_ W 000000000000005e
_ZNSt12_Vector_baseIP18VkPhysicalDevice_TSaIS1_EED1Ev W 000000000000004d
_ZNSt12_Vector_baseIP18VkPhysicalDevice_TSaIS1_EED2Ev W 000000000000004d
_ZNSt12_Vector_baseIPKcSaIS1_EE11_M_allocateEm W 0000000000000033
_ZNSt12_Vector_baseIPKcSaIS1_EE12_Vector_implC1ERKS2_ W 0000000000000032
_ZNSt12_Vector_baseIPKcSaIS1_EE12_Vector_implC1Ev W 0000000000000027
_ZNSt12_Vector_baseIPKcSaIS1_EE12_Vector_implC2ERKS2_ W 0000000000000032
_ZNSt12_Vector_baseIPKcSaIS1_EE12_Vector_implC2Ev W 0000000000000027
_ZNSt12_Vector_baseIPKcSaIS1_EE12_Vector_implD1Ev W 000000000000001b
_ZNSt12_Vector_baseIPKcSaIS1_EE12_Vector_implD2Ev W 000000000000001b
_ZNSt12_Vector_baseIPKcSaIS1_EE13_M_deallocateEPS1_m W 0000000000000035
_ZNSt12_Vector_baseIPKcSaIS1_EE17_Vector_impl_dataC1Ev W 000000000000002e
_ZNSt12_Vector_baseIPKcSaIS1_EE17_Vector_impl_dataC2Ev W 000000000000002e
_ZNSt12_Vector_baseIPKcSaIS1_EE19_M_get_Tp_allocatorEv W 000000000000000e
_ZNSt12_Vector_baseIPKcSaIS1_EEC1ERKS2_ W 0000000000000026
_ZNSt12_Vector_baseIPKcSaIS1_EEC1Ev W 000000000000001b
_ZNSt12_Vector_baseIPKcSaIS1_EEC2ERKS2_ W 0000000000000026
_ZNSt12_Vector_baseIPKcSaIS1_EEC2Ev W 000000000000001b
_ZNSt12_Vector_baseIPKcSaIS1_EED1Ev W 000000000000004d
_ZNSt12_Vector_baseIPKcSaIS1_EED2Ev W 000000000000004d
_ZNSt13move_iteratorIP21VkExtensionPropertiesEC1ES1_ W 000000000000001a
_ZNSt13move_iteratorIP21VkExtensionPropertiesEC2ES1_ W 000000000000001a
_ZNSt13move_iteratorIP22VkDeviceInfoPropertiesEC1ES1_ W 000000000000001a
_ZNSt13move_iteratorIP22VkDeviceInfoPropertiesEC2ES1_ W 000000000000001a
_ZNSt13move_iteratorIPNSt7__cxx1112basic_stringIcSt11char_traitsIcESaIcEEEEC1ES6_ W 000000000000001a
_ZNSt13move_iteratorIPNSt7__cxx1112basic_stringIcSt11char_traitsIcESaIcEEEEC2ES6_ W 000000000000001a
_ZNSt13move_iteratorIPNSt7__cxx1112basic_stringIcSt11char_traitsIcESaIcEEEEppEv W 0000000000000020
_ZNSt13move_iteratorIPPKcEC1ES2_ W 000000000000001a
_ZNSt13move_iteratorIPPKcEC2ES2_ W 000000000000001a
_ZNSt16allocator_traitsISaI21VkExtensionPropertiesEE10deallocateERS1_PS0_m W 000000000000002e
_ZNSt16allocator_traitsISaI21VkExtensionPropertiesEE8allocateERS1_m W 000000000000002a
_ZNSt16allocator_traitsISaI21VkExtensionPropertiesEE8max_sizeERKS1_ W 000000000000001a
_ZNSt16allocator_traitsISaI22VkDeviceInfoPropertiesEE10deallocateERS1_PS0_m W 000000000000002e
_ZNSt16allocator_traitsISaI22VkDeviceInfoPropertiesEE7destroyIS0_EEvRS1_PT_ W 0000000000000026
_ZNSt16allocator_traitsISaI22VkDeviceInfoPropertiesEE8allocateERS1_m W 000000000000002a
_ZNSt16allocator_traitsISaI22VkDeviceInfoPropertiesEE8max_sizeERKS1_ W 000000000000001a
_ZNSt16allocator_traitsISaI22VkDeviceInfoPropertiesEE9constructIS0_JRKS0_EEEvRS1_PT_DpOT0_ W 0000000000000039
_ZNSt16allocator_traitsISaINSt7__cxx1112basic_stringIcSt11char_traitsIcESaIcEEEEE10deallocateERS6_PS5_m W 000000000000002e
_ZNSt16allocator_traitsISaINSt7__cxx1112basic_stringIcSt11char_traitsIcESaIcEEEEE7destroyIS5_EEvRS6_PT_ W 0000000000000026
_ZNSt16allocator_traitsISaINSt7__cxx1112basic_stringIcSt11char_traitsIcESaIcEEEEE8allocateERS6_m W 000000000000002a
_ZNSt16allocator_traitsISaINSt7__cxx1112basic_stringIcSt11char_traitsIcESaIcEEEEE8max_sizeERKS6_ W 000000000000001a
_ZNSt16allocator_traitsISaINSt7__cxx1112basic_stringIcSt11char_traitsIcESaIcEEEEE9constructIS5_JS5_EEEvRS6_PT_DpOT0_ W 0000000000000039
_ZNSt16allocator_traitsISaIP18VkPhysicalDevice_TEE10deallocateERS2_PS1_m W 000000000000002e
_ZNSt16allocator_traitsISaIP18VkPhysicalDevice_TEE8allocateERS2_m W 000000000000002a
_ZNSt16allocator_traitsISaIP18VkPhysicalDevice_TEE8max_sizeERKS2_ W 000000000000001a
_ZNSt16allocator_traitsISaIPKcEE10deallocateERS2_PS1_m W 000000000000002e
_ZNSt16allocator_traitsISaIPKcEE7destroyIS1_EEvRS2_PT_ W 0000000000000026
_ZNSt16allocator_traitsISaIPKcEE8allocateERS2_m W 000000000000002a
_ZNSt16allocator_traitsISaIPKcEE8max_sizeERKS2_ W 000000000000001a
_ZNSt16allocator_traitsISaIPKcEE9constructIS1_JS1_EEEvRS2_PT_DpOT0_ W 0000000000000039
_ZNSt20__uninitialized_copyILb0EE13__uninit_copyISt13move_iteratorIPNSt7__cxx1112basic_stringIcSt11char_traitsIcESaIcEEEES9_EET0_T_SC_SB_ W 00000000000000ad
_ZNSt20__uninitialized_copyILb1EE13__uninit_copyIPKPKcPS3_EET0_T_S8_S7_ W 000000000000002d
_ZNSt20__uninitialized_copyILb1EE13__uninit_copyISt13move_iteratorIP21VkExtensionPropertiesES4_EET0_T_S7_S6_ W 000000000000002d
_ZNSt20__uninitialized_copyILb1EE13__uninit_copyISt13move_iteratorIP22VkDeviceInfoPropertiesES4_EET0_T_S7_S6_ W 000000000000002d
_ZNSt20__uninitialized_copyILb1EE13__uninit_copyISt13move_iteratorIPPKcES5_EET0_T_S8_S7_ W 000000000000002d
_ZNSt27__uninitialized_default_n_1ILb1EE18__uninit_default_nIP21VkExtensionPropertiesmEET_S4_T0_ W 000000000000007e
_ZNSt27__uninitialized_default_n_1ILb1EE18__uninit_default_nIPP18VkPhysicalDevice_TmEET_S5_T0_ W 0000000000000054
_ZNSt6vectorI21VkExtensionPropertiesSaIS0_EE11_S_max_sizeERKS1_ W 0000000000000065
_ZNSt6vectorI21VkExtensionPropertiesSaIS0_EE11_S_relocateEPS0_S3_S3_RS1_ W 0000000000000055
_ZNSt6vectorI21VkExtensionPropertiesSaIS0_EE14_S_do_relocateEPS0_S3_S3_RS1_St17integral_constantIbLb1EE W 0000000000000032
_ZNSt6vectorI21VkExtensionPropertiesSaIS0_EE15_M_erase_at_endEPS0_ W 0000000000000071
_ZNSt6vectorI21VkExtensionPropertiesSaIS0_EE15_S_use_relocateEv W 0000000000000032
_ZNSt6vectorI21VkExtensionPropertiesSaIS0_EE17_M_default_appendEm W 0000000000000392
_ZNSt6vectorI21VkExtensionPropertiesSaIS0_EE19_S_nothrow_relocateESt17integral_constantIbLb1EE W 000000000000000b
_ZNSt6vectorI21VkExtensionPropertiesSaIS0_EE3endEv W 000000000000004c
_ZNSt6vectorI21VkExtensionPropertiesSaIS0_EE4dataEv W 0000000000000024
_ZNSt6vectorI21VkExtensionPropertiesSaIS0_EE5beginEv W 0000000000000048
_ZNSt6vectorI21VkExtensionPropertiesSaIS0_EE6resizeEm W 0000000000000091
_ZNSt6vectorI21VkExtensionPropertiesSaIS0_EEC1Ev W 000000000000001b
_ZNSt6vectorI21VkExtensionPropertiesSaIS0_EEC2Ev W 000000000000001b
_ZNSt6vectorI21VkExtensionPropertiesSaIS0_EED1Ev W 0000000000000044
_ZNSt6vectorI21VkExtensionPropertiesSaIS0_EED2Ev W 0000000000000044
_ZNSt6vectorI22VkDeviceInfoPropertiesSaIS0_EE11_S_max_sizeERKS1_ W 0000000000000065
_ZNSt6vectorI22VkDeviceInfoPropertiesSaIS0_EE11_S_relocateEPS0_S3_S3_RS1_ W 0000000000000055
_ZNSt6vectorI22VkDeviceInfoPropertiesSaIS0_EE14_S_do_relocateEPS0_S3_S3_RS1_St17integral_constantIbLb1EE W 0000000000000032
_ZNSt6vectorI22VkDeviceInfoPropertiesSaIS0_EE15_S_use_relocateEv W 0000000000000032
_ZNSt6vectorI22VkDeviceInfoPropertiesSaIS0_EE17_M_realloc_insertIJRKS0_EEEvN9__gnu_cxx17__normal_iteratorIPS0_S2_EEDpOT_ W 00000000000002ff
_ZNSt6vectorI22VkDeviceInfoPropertiesSaIS0_EE19_S_nothrow_relocateESt17integral_constantIbLb1EE W 000000000000000b
_ZNSt6vectorI22VkDeviceInfoPropertiesSaIS0_EE20_M_allocate_and_copyISt13move_iteratorIPS0_EEES5_mT_S7_ W 0000000000000097
_ZNSt6vectorI22VkDeviceInfoPropertiesSaIS0_EE3endEv W 000000000000004c
_ZNSt6vectorI22VkDeviceInfoPropertiesSaIS0_EE5beginEv W 0000000000000048
_ZNSt6vectorI22VkDeviceInfoPropertiesSaIS0_EE7reserveEm W 00000000000001a0
_ZNSt6vectorI22VkDeviceInfoPropertiesSaIS0_EE9push_backERKS0_ W 000000000000007e
_ZNSt6vectorI22VkDeviceInfoPropertiesSaIS0_EEC1Ev W 000000000000001b
_ZNSt6vectorI22VkDeviceInfoPropertiesSaIS0_EEC2Ev W 000000000000001b
_ZNSt6vectorI22VkDeviceInfoPropertiesSaIS0_EED1Ev W 0000000000000044
_ZNSt6vectorI22VkDeviceInfoPropertiesSaIS0_EED2Ev W 0000000000000044
_ZNSt6vectorINSt7__cxx1112basic_stringIcSt11char_traitsIcESaIcEEESaIS5_EE11_S_max_sizeERKS6_ W 0000000000000065
_ZNSt6vectorINSt7__cxx1112basic_stringIcSt11char_traitsIcESaIcEEESaIS5_EE11_S_relocateEPS5_S8_S8_RS6_ W 0000000000000055
_ZNSt6vectorINSt7__cxx1112basic_stringIcSt11char_traitsIcESaIcEEESaIS5_EE12emplace_backIJS5_EEEvDpOT_ W 000000000000009a
_ZNSt6vectorINSt7__cxx1112basic_stringIcSt11char_traitsIcESaIcEEESaIS5_EE14_S_do_relocateEPS5_S8_S8_RS6_St17integral_constantIbLb1EE W 0000000000000032
_ZNSt6vectorINSt7__cxx1112basic_stringIcSt11char_traitsIcESaIcEEESaIS5_EE15_S_use_relocateEv W 0000000000000032
_ZNSt6vectorINSt7__cxx1112basic_stringIcSt11char_traitsIcESaIcEEESaIS5_EE17_M_realloc_insertIJS5_EEEvN9__gnu_cxx17__normal_iteratorIPS5_S7_EEDpOT_ W 00000000000002e8
_ZNSt6vectorINSt7__cxx1112basic_stringIcSt11char_traitsIcESaIcEEESaIS5_EE19_S_nothrow_relocateESt17integral_constantIbLb1EE W 000000000000000b
_ZNSt6vectorINSt7__cxx1112basic_stringIcSt11char_traitsIcESaIcEEESaIS5_EE3endEv W 000000000000004c
_ZNSt6vectorINSt7__cxx1112basic_stringIcSt11char_traitsIcESaIcEEESaIS5_EE5beginEv W 0000000000000048
_ZNSt6vectorINSt7__cxx1112basic_stringIcSt11char_traitsIcESaIcEEESaIS5_EE9push_backEOS5_ W 0000000000000031
_ZNSt6vectorINSt7__cxx1112basic_stringIcSt11char_traitsIcESaIcEEESaIS5_EEC1Ev W 000000000000001b
_ZNSt6vectorINSt7__cxx1112basic_stringIcSt11char_traitsIcESaIcEEESaIS5_EEC2Ev W 000000000000001b
_ZNSt6vectorINSt7__cxx1112basic_stringIcSt11char_traitsIcESaIcEEESaIS5_EED1Ev W 0000000000000044
_ZNSt6vectorINSt7__cxx1112basic_stringIcSt11char_traitsIcESaIcEEESaIS5_EED2Ev W 0000000000000044
_ZNSt6vectorIP18VkPhysicalDevice_TSaIS1_EE11_S_max_sizeERKS2_ W 0000000000000065
_ZNSt6vectorIP18VkPhysicalDevice_TSaIS1_EE17_S_check_init_lenEmRKS2_ W 0000000000000081
_ZNSt6vectorIP18VkPhysicalDevice_TSaIS1_EE21_M_default_initializeEm W 0000000000000040
_ZNSt6vectorIP18VkPhysicalDevice_TSaIS1_EE3endEv W 000000000000004c
_ZNSt6vectorIP18VkPhysicalDevice_TSaIS1_EE4dataEv W 0000000000000024
_ZNSt6vectorIP18VkPhysicalDevice_TSaIS1_EE5beginEv W 0000000000000048
_ZNSt6vectorIP18VkPhysicalDevice_TSaIS1_EEC1EmRKS2_ W 0000000000000077
_ZNSt6vectorIP18VkPhysicalDevice_TSaIS1_EEC2EmRKS2_ W 0000000000000077
_ZNSt6vectorIP18VkPhysicalDevice_TSaIS1_EED1Ev W 0000000000000044
_ZNSt6vectorIP18VkPhysicalDevice_TSaIS1_EED2Ev W 0000000000000044
_ZNSt6vectorIPKcSaIS1_EE11_S_max_sizeERKS2_ W 0000000000000065
_ZNSt6vectorIPKcSaIS1_EE11_S_relocateEPS1_S4_S4_RS2_ W 0000000000000055
_ZNSt6vectorIPKcSaIS1_EE12emplace_backIJS1_EEEvDpOT_ W 000000000000009a
_ZNSt6vectorIPKcSaIS1_EE14_S_do_relocateEPS1_S4_S4_RS2_St17integral_constantIbLb1EE W 0000000000000032
_ZNSt6vectorIPKcSaIS1_EE15_S_use_relocateEv W 0000000000000032
_ZNSt6vectorIPKcSaIS1_EE17_M_realloc_insertIJS1_EEEvN9__gnu_cxx17__normal_iteratorIPS1_S3_EEDpOT_ W 00000000000002eb
_ZNSt6vectorIPKcSaIS1_EE17_S_check_init_lenEmRKS2_ W 0000000000000081
_ZNSt6vectorIPKcSaIS1_EE19_M_range_initializeIPKS1_EEvT_S7_St20forward_iterator_tag W 00000000000000b0
_ZNSt6vectorIPKcSaIS1_EE19_S_nothrow_relocateESt17integral_constantIbLb1EE W 000000000000000b
_ZNSt6vectorIPKcSaIS1_EE3endEv W 000000000000004c
_ZNSt6vectorIPKcSaIS1_EE4dataEv W 0000000000000024
_ZNSt6vectorIPKcSaIS1_EE5beginEv W 0000000000000048
_ZNSt6vectorIPKcSaIS1_EE9push_backEOS1_ W 0000000000000031
_ZNSt6vectorIPKcSaIS1_EEC1ESt16initializer_listIS1_ERKS2_ W 00000000000000ab
_ZNSt6vectorIPKcSaIS1_EEC1Ev W 000000000000001b
_ZNSt6vectorIPKcSaIS1_EEC2ESt16initializer_listIS1_ERKS2_ W 00000000000000ab
_ZNSt6vectorIPKcSaIS1_EEC2Ev W 000000000000001b
_ZNSt6vectorIPKcSaIS1_EED1Ev W 0000000000000044
_ZNSt6vectorIPKcSaIS1_EED2Ev W 0000000000000044
_ZnwmPv W 0000000000000012
_ZSt10_ConstructINSt7__cxx1112basic_stringIcSt11char_traitsIcESaIcEEEJS5_EEvPT_DpOT0_ W 0000000000000044
_ZSt10__distanceIPKPKcENSt15iterator_traitsIT_E15difference_typeES5_S5_St26random_access_iterator_tag W 000000000000001a
_ZSt10__fill_n_aIP21VkExtensionPropertiesmS0_EN9__gnu_cxx11__enable_ifIXntsrSt11__is_scalarIT1_E7__valueET_E6__typeES7_T0_RKS5_ W 0000000000000084
_ZSt10__fill_n_aIPP18VkPhysicalDevice_TmS1_EN9__gnu_cxx11__enable_ifIXsrSt11__is_scalarIT1_E7__valueET_E6__typeES8_T0_RKS6_ W 0000000000000047
_ZSt11__addressofINSt7__cxx1112basic_stringIcSt11char_traitsIcESaIcEEEEPT_RS6_ W 000000000000000e
_ZSt12__miter_baseIP21VkExtensionPropertiesEDTcl12__miter_basecldtfp_4baseEEESt13move_iteratorIT_E W 0000000000000022
_ZSt12__miter_baseIP21VkExtensionPropertiesET_S2_ W 000000000000000e
_ZSt12__miter_baseIP22VkDeviceInfoPropertiesEDTcl12__miter_basecldtfp_4baseEEESt13move_iteratorIT_E W 0000000000000022
_ZSt12__miter_baseIP22VkDeviceInfoPropertiesET_S2_ W 000000000000000e
_ZSt12__miter_baseIPKPKcET_S4_ W 000000000000000e
_ZSt12__miter_baseIPPKcEDTcl12__miter_basecldtfp_4baseEEESt13move_iteratorIT_E W 0000000000000022
_ZSt12__miter_baseIPPKcET_S3_ W 000000000000000e
_ZSt12__niter_baseIP21VkExtensionPropertiesET_S2_ W 000000000000000e
_ZSt12__niter_baseIP22VkDeviceInfoPropertiesET_S2_ W 000000000000000e
_ZSt12__niter_baseIPKPKcET_S4_ W 000000000000000e
_ZSt12__niter_baseIPNSt7__cxx1112basic_stringIcSt11char_traitsIcESaIcEEEET_S7_ W 000000000000000e
_ZSt12__niter_baseIPP18VkPhysicalDevice_TET_S3_ W 000000000000000e
_ZSt12__niter_baseIPPKcET_S3_ W 000000000000000e
_ZSt12__niter_wrapIP21VkExtensionPropertiesET_RKS2_S2_ W 0000000000000012
_ZSt12__niter_wrapIP22VkDeviceInfoPropertiesET_RKS2_S2_ W 0000000000000012
_ZSt12__niter_wrapIPP18VkPhysicalDevice_TET_RKS3_S3_ W 0000000000000012
_ZSt12__niter_wrapIPPKcET_RKS3_S3_ W 0000000000000012
_ZSt12__relocate_aIP21VkExtensionPropertiesS1_SaIS0_EET0_T_S4_S3_RT1_ W 0000000000000063
_ZSt12__relocate_aIP22VkDeviceInfoPropertiesS1_SaIS0_EET0_T_S4_S3_RT1_ W 0000000000000063
_ZSt12__relocate_aIPNSt7__cxx1112basic_stringIcSt11char_traitsIcESaIcEEES6_SaIS5_EET0_T_S9_S8_RT1_ W 0000000000000063
_ZSt12__relocate_aIPPKcS2_SaIS1_EET0_T_S5_S4_RT1_ W 0000000000000063
_ZSt13__copy_move_aILb0EPKPKcPS1_ET1_T0_S6_S5_ W 0000000000000031
_ZSt13__copy_move_aILb1EP21VkExtensionPropertiesS1_ET1_T0_S3_S2_ W 0000000000000031
_ZSt13__copy_move_aILb1EP22VkDeviceInfoPropertiesS1_ET1_T0_S3_S2_ W 0000000000000031
_ZSt13__copy_move_aILb1EPPKcS2_ET1_T0_S4_S3_ W 0000000000000031
_ZSt14__copy_move_a2ILb0EPKPKcPS1_ET1_T0_S6_S5_ W 000000000000006a
_ZSt14__copy_move_a2ILb1EP21VkExtensionPropertiesS1_ET1_T0_S3_S2_ W 000000000000006a
_ZSt14__copy_move_a2ILb1EP22VkDeviceInfoPropertiesS1_ET1_T0_S3_S2_ W 000000000000006a
_ZSt14__copy_move_a2ILb1EPPKcS2_ET1_T0_S4_S3_ W 000000000000006a
_ZSt14__relocate_a_1I21VkExtensionPropertiesS0_ENSt9enable_ifIXsrSt24__is_bitwise_relocatableIT_vE5valueEPS3_E4typeES5_S5_S5_RSaIT0_E W 0000000000000086
_ZSt14__relocate_a_1I22VkDeviceInfoPropertiesS0_ENSt9enable_ifIXsrSt24__is_bitwise_relocatableIT_vE5valueEPS3_E4typeES5_S5_S5_RSaIT0_E W 0000000000000072
_ZSt14__relocate_a_1IPKcS1_ENSt9enable_ifIXsrSt24__is_bitwise_relocatableIT_vE5valueEPS4_E4typeES6_S6_S6_RSaIT0_E W 0000000000000063
_ZSt14__relocate_a_1IPNSt7__cxx1112basic_stringIcSt11char_traitsIcESaIcEEES6_SaIS5_EET0_T_S9_S8_RT1_ W 0000000000000072
_ZSt18uninitialized_copyIPKPKcPS1_ET0_T_S6_S5_ W 0000000000000031
_ZSt18uninitialized_copyISt13move_iteratorIP21VkExtensionPropertiesES2_ET0_T_S5_S4_ W 0000000000000031
_ZSt18uninitialized_copyISt13move_iteratorIP22VkDeviceInfoPropertiesES2_ET0_T_S5_S4_ W 0000000000000031
_ZSt18uninitialized_copyISt13move_iteratorIPNSt7__cxx1112basic_stringIcSt11char_traitsIcESaIcEEEES7_ET0_T_SA_S9_ W 0000000000000031
_ZSt18uninitialized_copyISt13move_iteratorIPPKcES3_ET0_T_S6_S5_ W 0000000000000031
_ZSt19__iterator_categoryIN9__gnu_cxx17__normal_iteratorIP21VkExtensionPropertiesSt6vectorIS2_SaIS2_EEEEENSt15iterator_traitsIT_E17iterator_categoryERKS9_ W 000000000000000a
_ZSt19__iterator_categoryIN9__gnu_cxx17__normal_iteratorIPNSt7__cxx1112basic_stringIcSt11char_traitsIcESaIcEEESt6vectorIS7_SaIS7_EEEEENSt15iterator_traitsIT_E17iterator_categoryERKSE_ W 000000000000000a
_ZSt19__iterator_categoryIPKPKcENSt15iterator_traitsIT_E17iterator_categoryERKS5_ W 000000000000000a
_ZSt19__relocate_object_aINSt7__cxx1112basic_stringIcSt11char_traitsIcESaIcEEES5_SaIS5_EEvPT_PT0_RT1_ W 0000000000000057
_ZSt22__uninitialized_copy_aIPKPKcPS1_S1_ET0_T_S6_S5_RSaIT1_E W 0000000000000031
_ZSt22__uninitialized_copy_aISt13move_iteratorIP21VkExtensionPropertiesES2_S1_ET0_T_S5_S4_RSaIT1_E W 0000000000000031
_ZSt22__uninitialized_copy_aISt13move_iteratorIP22VkDeviceInfoPropertiesES2_S1_ET0_T_S5_S4_RSaIT1_E W 0000000000000031
_ZSt22__uninitialized_copy_aISt13move_iteratorIPNSt7__cxx1112basic_stringIcSt11char_traitsIcESaIcEEEES7_S6_ET0_T_SA_S9_RSaIT1_E W 0000000000000031
_ZSt22__uninitialized_copy_aISt13move_iteratorIPPKcES3_S2_ET0_T_S6_S5_RSaIT1_E W 0000000000000031
_ZSt25__uninitialized_default_nIP21VkExtensionPropertiesmET_S2_T0_ W 0000000000000029
_ZSt25__uninitialized_default_nIPP18VkPhysicalDevice_TmET_S3_T0_ W 0000000000000029
_ZSt27__uninitialized_default_n_aIP21VkExtensionPropertiesmS0_ET_S2_T0_RSaIT1_E W 0000000000000029
_ZSt27__uninitialized_default_n_aIPP18VkPhysicalDevice_TmS1_ET_S3_T0_RSaIT1_E W 0000000000000029
_ZSt32__make_move_if_noexcept_iteratorI21VkExtensionPropertiesSt13move_iteratorIPS0_EET0_PT_ W 0000000000000048
_ZSt32__make_move_if_noexcept_iteratorI22VkDeviceInfoPropertiesSt13move_iteratorIPS0_EET0_PT_ W 0000000000000048
_ZSt32__make_move_if_noexcept_iteratorINSt7__cxx1112basic_stringIcSt11char_traitsIcESaIcEEESt13move_iteratorIPS5_EET0_PT_ W 0000000000000048
_ZSt32__make_move_if_noexcept_iteratorIPKcSt13move_iteratorIPS1_EET0_PT_ W 0000000000000048
_ZSt34__uninitialized_move_if_noexcept_aIP21VkExtensionPropertiesS1_SaIS0_EET0_T_S4_S3_RT1_ W 0000000000000054
_ZSt34__uninitialized_move_if_noexcept_aIP22VkDeviceInfoPropertiesS1_SaIS0_EET0_T_S4_S3_RT1_ W 0000000000000054
_ZSt34__uninitialized_move_if_noexcept_aIPNSt7__cxx1112basic_stringIcSt11char_traitsIcESaIcEEES6_SaIS5_EET0_T_S9_S8_RT1_ W 0000000000000054
_ZSt34__uninitialized_move_if_noexcept_aIPPKcS2_SaIS1_EET0_T_S5_S4_RT1_ W 0000000000000054
_ZSt3maxImERKT_S2_S2_ W 000000000000002b
_ZSt3minImERKT_S2_S2_ W 000000000000002b
_ZSt4copyIPKPKcPS1_ET0_T_S6_S5_ W 000000000000004c
_ZSt4copyISt13move_iteratorIP21VkExtensionPropertiesES2_ET0_T_S5_S4_ W 000000000000004c
_ZSt4copyISt13move_iteratorIP22VkDeviceInfoPropertiesES2_ET0_T_S5_S4_ W 000000000000004c
_ZSt4copyISt13move_iteratorIPPKcES3_ET0_T_S6_S5_ W 000000000000004c
_ZSt4findIN9__gnu_cxx17__normal_iteratorIPNSt7__cxx1112basic_stringIcSt11char_traitsIcESaIcEEESt6vectorIS7_SaIS7_EEEEA39_cET_SE_SE_RKT0_ W 0000000000000038
_ZSt4moveIRNSt7__cxx1112basic_stringIcSt11char_traitsIcESaIcEEEEONSt16remove_referenceIT_E4typeEOS8_ W 000000000000000e
_ZSt4moveIRPKcEONSt16remove_referenceIT_E4typeEOS4_ W 000000000000000e
_ZSt6fill_nIP21VkExtensionPropertiesmS0_ET_S2_T0_RKT1_ W 000000000000004a
_ZSt6fill_nIPP18VkPhysicalDevice_TmS1_ET_S3_T0_RKT1_ W 000000000000004a
_ZSt7forwardINSt7__cxx1112basic_stringIcSt11char_traitsIcESaIcEEEEOT_RNSt16remove_referenceIS6_E4typeE W 000000000000000e
_ZSt7forwardIPKcEOT_RNSt16remove_referenceIS2_E4typeE W 000000000000000e
_ZSt7forwardIRK22VkDeviceInfoPropertiesEOT_RNSt16remove_referenceIS3_E4typeE W 000000000000000e
_ZSt8_DestroyINSt7__cxx1112basic_stringIcSt11char_traitsIcESaIcEEEEvPT_ W 000000000000001b
_ZSt8_DestroyIP21VkExtensionPropertiesEvT_S2_ W 0000000000000026
_ZSt8_DestroyIP21VkExtensionPropertiesS0_EvT_S2_RSaIT0_E W 000000000000002a
_ZSt8_DestroyIP22VkDeviceInfoPropertiesEvT_S2_ W 0000000000000026
_ZSt8_DestroyIP22VkDeviceInfoPropertiesS0_EvT_S2_RSaIT0_E W 000000000000002a
_ZSt8_DestroyIPNSt7__cxx1112basic_stringIcSt11char_traitsIcESaIcEEEEvT_S7_ W 0000000000000026
_ZSt8_DestroyIPNSt7__cxx1112basic_stringIcSt11char_traitsIcESaIcEEES5_EvT_S7_RSaIT0_E W 000000000000002a
_ZSt8_DestroyIPP18VkPhysicalDevice_TEvT_S3_ W 0000000000000026
_ZSt8_DestroyIPP18VkPhysicalDevice_TS1_EvT_S3_RSaIT0_E W 000000000000002a
_ZSt8_DestroyIPPKcEvT_S3_ W 0000000000000026
_ZSt8_DestroyIPPKcS1_EvT_S3_RSaIT0_E W 000000000000002a
_ZSt8distanceIPKPKcENSt15iterator_traitsIT_E15difference_typeES5_S5_ W 0000000000000054
_ZSt9__find_ifIN9__gnu_cxx17__normal_iteratorIPNSt7__cxx1112basic_stringIcSt11char_traitsIcESaIcEEESt6vectorIS7_SaIS7_EEEENS0_5__ops16_Iter_equals_valIA39_KcEEET_SI_SI_T0_ W 000000000000005c
_ZSt9__find_ifIN9__gnu_cxx17__normal_iteratorIPNSt7__cxx1112basic_stringIcSt11char_traitsIcESaIcEEESt6vectorIS7_SaIS7_EEEENS0_5__ops16_Iter_equals_valIA39_KcEEET_SI_SI_T0_St26random_access_iterator_tag W 00000000000001a6
_ZSteqIcEN9__gnu_cxx11__enable_ifIXsrSt9__is_charIT_E7__valueEbE6__typeERKNSt7__cxx1112basic_stringIS3_St11char_traitsIS3_ESaIS3_EEESE_ W 0000000000000084
_ZSteqIcSt11char_traitsIcESaIcEEbRKNSt7__cxx1112basic_stringIT_T0_T1_EEPKS5_ W 000000000000002a
_ZSteqIPNSt7__cxx1112basic_stringIcSt11char_traitsIcESaIcEEEEbRKSt13move_iteratorIT_ESB_ W 0000000000000039
_ZStneIPNSt7__cxx1112basic_stringIcSt11char_traitsIcESaIcEEEEbRKSt13move_iteratorIT_ESB_ W 0000000000000028
